(lp1
(I285
I81
tp2
a(I52
I333
tp3
a(I310
I93
tp4
a(I365
I38
tp5
a(I286
I193
tp6
a(I147
I264
tp7
a(I129
I258
tp8
a(I318
I27
tp9
a(I275
I198
tp10
a(I226
I220
tp11
a(I274
I119
tp12
a(I81
I296
tp13
a(I282
I207
tp14
a(I252
I178
tp15
a(I163
I239
tp16
a(I294
I68
tp17
a(I316
I37
tp18
a(I264
I174
tp19
a(I304
I113
tp20
a(I269
I129
tp21
a(I218
I239
tp22
a(I165
I265
tp23
a(I299
I71
tp24
a(I49
I306
tp25
a(I179
I252
tp26
a(I200
I249
tp27
a(I292
I157
tp28
a(I227
I207
tp29
a(I320
I22
tp30
a(I85
I249
tp31
a(I89
I240
tp32
a(I71
I282
tp33
a(I212
I236
tp34
a(I270
I92
tp35
a(I322
I51
tp36
a(I73
I244
tp37
a(I331
I87
tp38
a(I59
I288
tp39
a(I325
I46
tp40
a(I93
I295
tp41
a(I254
I172
tp42
a(I330
I63
tp43
a(I171
I234
tp44
a(I175
I237
tp45
a(I288
I97
tp46
a(I272
I198
tp47
a(I275
I188
tp48
a(I226
I252
tp49
a(I301
I70
tp50
a(I104
I249
tp51
a(I252
I203
tp52
a(I281
I170
tp53
a(I304
I70
tp54
a(I73
I269
tp55
a(I311
I42
tp56
a(I239
I238
tp57
a(I171
I263
tp58
a(I29
I273
tp59
a(I339
I60
tp60
a(I19
I265
tp61
a(I334
I39
tp62
a(I229
I196
tp63
a(I313
I106
tp64
a(I250
I216
tp65
a(I313
I74
tp66
a(I295
I111
tp67
a(I190
I259
tp68
a(I266
I168
tp69
a(I229
I233
tp70
a(I106
I296
tp71
a(I310
I141
tp72
a(I323
I56
tp73
a(I340
I58
tp74
a(I237
I173
tp75
a(I239
I172
tp76
a(I300
I53
tp77
a(I318
I53
tp78
a(I296
I14
tp79
a(I349
I54
tp80
a(I84
I250
tp81
a(I251
I238
tp82
a(I288
I86
tp83
a(I214
I247
tp84
a(I94
I251
tp85
a(I260
I170
tp86
a(I317
I70
tp87
a(I282
I88
tp88
a(I158
I271
tp89
a(I270
I165
tp90
a(I75
I336
tp91
a(I293
I48
tp92
a(I62
I303
tp93
a(I28
I267
tp94
a(I331
I36
tp95
a(I222
I239
tp96
a(I280
I126
tp97
a(I277
I192
tp98
a(I304
I49
tp99
a(I97
I300
tp100
a(I334
I43
tp101
a(I82
I247
tp102
a(I247
I243
tp103
a(I305
I92
tp104
a(I197
I201
tp105
a(I235
I241
tp106
a(I307
I40
tp107
a(I314
I85
tp108
a(I208
I230
tp109
a(I138
I261
tp110
a(I265
I212
tp111
a(I229
I223
tp112
a(I284
I151
tp113
a(I267
I199
tp114
a(I218
I207
tp115
a(I244
I195
tp116
a(I343
I31
tp117
a(I60
I260
tp118
a(I285
I102
tp119
a(I311
I148
tp120
a(I147
I232
tp121
a(I265
I84
tp122
a(I287
I139
tp123
a(I276
I141
tp124
a(I243
I233
tp125
a(I53
I270
tp126
a(I249
I202
tp127
a(I308
I140
tp128
a(I89
I260
tp129
a(I326
I50
tp130
a(I331
I49
tp131
a(I283
I183
tp132
a(I215
I208
tp133
a(I142
I255
tp134
a(I190
I33
tp135
a(I244
I173
tp136
a(I123
I119
tp137
a(I180
I228
tp138
a(I140
I261
tp139
a(I355
I24
tp140
a(I46
I267
tp141
a(I162
I263
tp142
a(I153
I228
tp143
a(I92
I274
tp144
a(I278
I131
tp145
a(I249
I176
tp146
a(I156
I255
tp147
a(I67
I280
tp148
a(I306
I119
tp149
a(I183
I258
tp150
a(I60
I274
tp151
a(I138
I255
tp152
a(I157
I242
tp153
a(I164
I243
tp154
a(I311
I100
tp155
a(I146
I256
tp156
a(I26
I271
tp157
a(I236
I194
tp158
a(I116
I122
tp159
a(I45
I279
tp160
a(I198
I223
tp161
a(I243
I159
tp162
a(I323
I24
tp163
a(I294
I167
tp164
a(I139
I240
tp165
a(I286
I76
tp166
a(I54
I268
tp167
a(I294
I103
tp168
a(I296
I57
tp169
a(I265
I224
tp170
a(I238
I229
tp171
a(I243
I188
tp172
a(I300
I122
tp173
a(I263
I116
tp174
a(I265
I114
tp175
a(I274
I128
tp176
a(I221
I166
tp177
a(I270
I107
tp178
a(I186
I239
tp179
a(I38
I274
tp180
a(I300
I155
tp181
a(I322
I41
tp182
a(I27
I282
tp183
a(I90
I280
tp184
a(I260
I211
tp185
a(I284
I146
tp186
a(I270
I156
tp187
a(I235
I208
tp188
a(I55
I278
tp189
a(I275
I232
tp190
a(I244
I221
tp191
a(I319
I11
tp192
a(I251
I154
tp193
a(I300
I143
tp194
a(I71
I312
tp195
a(I334
I5
tp196
a(I226
I189
tp197
a(I211
I211
tp198
a(I170
I254
tp199
a(I280
I105
tp200
a(I190
I227
tp201
a(I213
I239
tp202
a(I269
I97
tp203
a(I154
I239
tp204
a(I290
I135
tp205
a(I64
I303
tp206
a(I290
I71
tp207
a(I313
I26
tp208
a(I315
I96
tp209
a(I302
I95
tp210
a(I305
I101
tp211
a(I257
I216
tp212
a(I187
I224
tp213
a(I204
I231
tp214
a(I303
I91
tp215
a(I252
I151
tp216
a(I187
I247
tp217
a(I79
I268
tp218
a(I67
I332
tp219
a(I229
I169
tp220
a(I267
I190
tp221
a(I359
I47
tp222
a(I174
I241
tp223
a(I264
I204
tp224
a(I282
I178
tp225
a(I353
I56
tp226
a(I255
I171
tp227
a(I185
I253
tp228
a(I313
I48
tp229
a(I262
I182
tp230
a(I67
I271
tp231
a(I262
I201
tp232
a(I213
I233
tp233
a(I311
I98
tp234
a(I191
I235
tp235
a(I306
I23
tp236
a(I273
I115
tp237
a(I321
I54
tp238
a(I83
I274
tp239
a(I296
I78
tp240
a(I178
I249
tp241
a(I271
I214
tp242
a(I201
I244
tp243
a(I278
I87
tp244
a(I282
I174
tp245
a(I83
I242
tp246
a(I141
I86
tp247
a(I259
I214
tp248
a(I279
I144
tp249
a(I280
I222
tp250
a(I232
I206
tp251
a(I257
I177
tp252
a(I338
I55
tp253
a(I332
I53
tp254
a(I234
I165
tp255
a(I315
I32
tp256
a(I261
I191
tp257
a(I220
I229
tp258
a(I179
I264
tp259
a(I76
I263
tp260
a(I301
I108
tp261
a(I41
I283
tp262
a(I299
I48
tp263
a(I271
I184
tp264
a(I272
I230
tp265
a(I251
I224
tp266
a(I89
I253
tp267
a(I239
I205
tp268
a(I156
I235
tp269
a(I273
I178
tp270
a(I226
I243
tp271
a(I78
I241
tp272
a(I301
I54
tp273
a(I320
I15
tp274
a(I275
I200
tp275
a(I59
I334
tp276
a(I252
I190
tp277
a(I269
I161
tp278
a(I285
I70
tp279
a(I174
I261
tp280
a(I266
I104
tp281
a(I234
I235
tp282
a(I277
I121
tp283
a(I148
I269
tp284
a(I49
I274
tp285
a(I227
I226
tp286
a(I287
I107
tp287
a(I307
I95
tp288
a(I343
I40
tp289
a(I285
I137
tp290
a(I294
I147
tp291
a(I308
I141
tp292
a(I358
I41
tp293
a(I172
I270
tp294
a(I304
I38
tp295
a(I46
I298
tp296
a(I298
I136
tp297
a(I179
I232
tp298
a(I281
I228
tp299
a(I68
I316
tp300
a(I235
I221
tp301
a(I269
I119
tp302
a(I316
I50
tp303
a(I174
I252
tp304
a(I275
I111
tp305
a(I58
I271
tp306
a(I233
I192
tp307
a(I381
I49
tp308
a(I365
I44
tp309
a(I234
I177
tp310
a(I256
I193
tp311
a(I151
I255
tp312
a(I338
I45
tp313
a(I267
I112
tp314
a(I218
I175
tp315
a(I182
I244
tp316
a(I273
I223
tp317
a(I84
I236
tp318
a(I287
I157
tp319
a(I270
I235
tp320
a(I228
I201
tp321
a(I34
I272
tp322
a(I259
I207
tp323
a(I350
I33
tp324
a(I251
I183
tp325
a(I326
I53
tp326
a(I286
I143
tp327
a(I36
I285
tp328
a(I243
I95
tp329
a(I280
I211
tp330
a(I329
I84
tp331
a(I80
I273
tp332
a(I216
I222
tp333
a(I284
I101
tp334
a(I262
I196
tp335
a(I162
I240
tp336
a(I294
I70
tp337
a(I76
I290
tp338
a(I54
I276
tp339
a(I237
I225
tp340
a(I294
I149
tp341
a(I270
I223
tp342
a(I240
I163
tp343
a(I281
I93
tp344
a(I245
I232
tp345
a(I259
I152
tp346
a(I282
I219
tp347
a(I230
I211
tp348
a(I39
I277
tp349
a(I291
I152
tp350
a(I296
I109
tp351
a(I226
I211
tp352
a(I192
I257
tp353
a(I172
I229
tp354
a(I251
I186
tp355
a(I267
I222
tp356
a(I215
I228
tp357
a(I238
I234
tp358
a(I394
I40
tp359
a(I278
I212
tp360
a(I369
I40
tp361
a(I230
I228
tp362
a(I238
I171
tp363
a(I357
I50
tp364
a(I48
I285
tp365
a(I141
I258
tp366
a(I278
I195
tp367
a(I70
I327
tp368
a(I108
I245
tp369
a(I235
I240
tp370
a(I291
I216
tp371
a(I317
I40
tp372
a(I281
I106
tp373
a(I305
I83
tp374
a(I223
I221
tp375
a(I279
I222
tp376
a(I329
I58
tp377
a(I287
I146
tp378
a(I266
I159
tp379
a(I159
I264
tp380
a(I208
I239
tp381
a(I301
I56
tp382
a(I265
I90
tp383
a(I122
I251
tp384
a(I271
I86
tp385
a(I294
I83
tp386
a(I40
I269
tp387
a(I317
I22
tp388
a(I320
I79
tp389
a(I164
I253
tp390
a(I291
I111
tp391
a(I246
I165
tp392
a(I244
I213
tp393
a(I350
I59
tp394
a(I324
I61
tp395
a(I185
I234
tp396
a(I278
I98
tp397
a(I159
I235
tp398
a(I318
I44
tp399
a(I286
I74
tp400
a(I339
I51
tp401
a(I241
I229
tp402
a(I166
I253
tp403
a(I249
I170
tp404
a(I327
I24
tp405
a(I291
I89
tp406
a(I357
I41
tp407
a(I212
I218
tp408
a(I226
I199
tp409
a(I25
I266
tp410
a(I248
I190
tp411
a(I201
I200
tp412
a(I59
I321
tp413
a(I140
I110
tp414
a(I360
I56
tp415
a(I195
I249
tp416
a(I275
I159
tp417
a(I230
I192
tp418
a(I180
I259
tp419
a(I194
I231
tp420
a(I353
I34
tp421
a(I259
I177
tp422
a(I265
I180
tp423
a(I167
I270
tp424
a(I95
I252
tp425
a(I354
I39
tp426
a(I248
I231
tp427
a(I89
I246
tp428
a(I278
I151
tp429
a(I267
I87
tp430
a(I60
I293
tp431
a(I334
I49
tp432
a(I281
I75
tp433
a(I270
I171
tp434
a(I276
I183
tp435
a(I300
I66
tp436
a(I305
I133
tp437
a(I310
I35
tp438
a(I312
I62
tp439
a(I196
I221
tp440
a(I220
I210
tp441
a(I284
I107
tp442
a(I288
I89
tp443
a(I295
I76
tp444
a(I345
I29
tp445
a(I85
I302
tp446
a(I160
I256
tp447
a(I278
I180
tp448
a(I117
I249
tp449
a(I337
I50
tp450
a(I307
I60
tp451
a(I262
I164
tp452
a(I276
I122
tp453
a(I243
I200
tp454
a(I35
I281
tp455
a(I140
I244
tp456
a(I275
I80
tp457
a(I118
I249
tp458
a(I191
I220
tp459
a(I219
I218
tp460
a(I271
I84
tp461
a(I275
I146
tp462
a(I270
I146
tp463
a(I289
I117
tp464
a(I293
I126
tp465
a(I132
I253
tp466
a(I71
I335
tp467
a(I141
I238
tp468
a(I271
I92
tp469
a(I23
I275
tp470
a(I246
I169
tp471
a(I26
I277
tp472
a(I311
I51
tp473
a(I243
I215
tp474
a(I228
I189
tp475
a(I291
I95
tp476
a(I162
I243
tp477
a(I336
I61
tp478
a(I179
I265
tp479
a(I303
I76
tp480
a(I271
I237
tp481
a(I300
I148
tp482
a(I82
I291
tp483
a(I144
I235
tp484
a(I292
I52
tp485
a(I189
I252
tp486
a(I233
I187
tp487
a(I230
I221
tp488
a(I253
I214
tp489
a(I312
I40
tp490
a(I262
I221
tp491
a(I68
I307
tp492
a(I331
I63
tp493
a(I41
I288
tp494
a(I190
I251
tp495
a(I146
I259
tp496
a(I250
I207
tp497
a(I283
I184
tp498
a(I282
I111
tp499
a(I175
I56
tp500
a(I274
I204
tp501
a(I245
I192
tp502
a(I234
I175
tp503
a(I71
I280
tp504
a(I252
I183
tp505
a(I254
I219
tp506
a(I86
I276
tp507
a(I330
I46
tp508
a(I248
I220
tp509
a(I203
I228
tp510
a(I278
I197
tp511
a(I96
I253
tp512
a(I216
I253
tp513
a(I78
I284
tp514
a(I80
I249
tp515
a(I74
I267
tp516
a(I314
I79
tp517
a(I101
I233
tp518
a(I53
I313
tp519
a(I88
I270
tp520
a(I282
I143
tp521
a(I319
I60
tp522
a(I112
I230
tp523
a(I275
I74
tp524
a(I291
I56
tp525
a(I105
I237
tp526
a(I78
I316
tp527
a(I134
I246
tp528
a(I61
I273
tp529
a(I284
I139
tp530
a(I344
I60
tp531
a(I222
I207
tp532
a(I323
I79
tp533
a(I301
I119
tp534
a(I174
I255
tp535
a(I354
I48
tp536
a(I371
I41
tp537
a(I266
I231
tp538
a(I331
I24
tp539
a(I231
I180
tp540
a(I239
I188
tp541
a(I345
I42
tp542
a(I270
I113
tp543
a(I184
I243
tp544
a(I220
I171
tp545
a(I210
I215
tp546
a(I282
I120
tp547
a(I327
I52
tp548
a(I69
I265
tp549
a(I150
I259
tp550
a(I306
I45
tp551
a(I317
I113
tp552
a(I56
I329
tp553
a(I168
I238
tp554
a(I283
I116
tp555
a(I209
I243
tp556
a(I324
I39
tp557
a(I269
I182
tp558
a(I200
I236
tp559
a(I300
I121
tp560
a(I235
I170
tp561
a(I274
I215
tp562
a(I229
I201
tp563
a(I156
I261
tp564
a(I300
I59
tp565
a(I270
I188
tp566
a(I62
I331
tp567
a(I253
I230
tp568
a(I241
I194
tp569
a(I306
I86
tp570
a(I74
I328
tp571
a(I271
I182
tp572
a(I327
I32
tp573
a(I211
I220
tp574
a(I234
I232
tp575
a(I73
I301
tp576
a(I209
I226
tp577
a(I264
I206
tp578
a(I86
I281
tp579
a(I275
I147
tp580
a(I268
I194
tp581
a(I69
I329
tp582
a(I268
I98
tp583
a(I162
I252
tp584
a(I240
I191
tp585
a(I78
I305
tp586
a(I153
I248
tp587
a(I57
I317
tp588
a(I249
I157
tp589
a(I258
I201
tp590
a(I280
I158
tp591
a(I292
I138
tp592
a(I289
I78
tp593
a(I168
I259
tp594
a(I81
I243
tp595
a(I281
I184
tp596
a(I262
I90
tp597
a(I208
I241
tp598
a(I88
I278
tp599
a(I195
I236
tp600
a(I258
I135
tp601
a(I253
I198
tp602
a(I173
I246
tp603
a(I263
I148
tp604
a(I243
I210
tp605
a(I275
I210
tp606
a(I287
I92
tp607
a(I299
I112
tp608
a(I201
I237
tp609
a(I274
I195
tp610
a(I283
I160
tp611
a(I268
I223
tp612
a(I279
I179
tp613
a(I125
I241
tp614
a(I369
I50
tp615
a(I240
I240
tp616
a(I278
I227
tp617
a(I272
I102
tp618
a(I70
I292
tp619
a(I300
I133
tp620
a(I262
I243
tp621
a(I263
I236
tp622
a(I264
I233
tp623
a(I87
I147
tp624
a(I259
I216
tp625
a(I74
I319
tp626
a(I243
I216
tp627
a(I49
I293
tp628
a(I285
I230
tp629
a(I313
I112
tp630
a(I276
I173
tp631
a(I93
I230
tp632
a(I260
I189
tp633
a(I245
I187
tp634
a(I108
I130
tp635
a(I152
I265
tp636
a(I220
I235
tp637
a(I291
I162
tp638
a(I77
I248
tp639
a(I241
I242
tp640
a(I319
I29
tp641
a(I63
I316
tp642
a(I313
I90
tp643
a(I46
I287
tp644
a(I73
I321
tp645
a(I265
I218
tp646
a(I235
I216
tp647
a(I262
I167
tp648
a(I44
I277
tp649
a(I285
I17
tp650
a(I147
I240
tp651
a(I329
I43
tp652
a(I260
I229
tp653
a(I236
I229
tp654
a(I83
I264
tp655
a(I279
I83
tp656
a(I263
I222
tp657
a(I96
I278
tp658
a(I234
I197
tp659
a(I265
I122
tp660
a(I346
I53
tp661
a(I250
I156
tp662
a(I81
I293
tp663
a(I212
I205
tp664
a(I266
I145
tp665
a(I214
I215
tp666
a(I273
I220
tp667
a(I264
I185
tp668
a(I143
I108
tp669
a(I59
I311
tp670
a(I223
I232
tp671
a(I256
I246
tp672
a(I252
I210
tp673
a(I217
I171
tp674
a(I329
I45
tp675
a(I278
I115
tp676
a(I232
I238
tp677
a(I264
I101
tp678
a(I237
I162
tp679
a(I135
I238
tp680
a(I260
I230
tp681
a(I279
I224
tp682
a(I348
I50
tp683
a(I262
I132
tp684
a(I194
I240
tp685
a(I280
I206
tp686
a(I241
I178
tp687
a(I260
I124
tp688
a(I270
I203
tp689
a(I260
I218
tp690
a(I297
I90
tp691
a(I204
I218
tp692
a(I102
I292
tp693
a(I187
I231
tp694
a(I102
I221
tp695
a(I68
I285
tp696
a(I237
I193
tp697
a(I275
I95
tp698
a(I239
I219
tp699
a(I302
I101
tp700
a(I177
I242
tp701
a(I241
I243
tp702
a(I72
I345
tp703
a(I264
I216
tp704
a(I217
I170
tp705
a(I249
I234
tp706
a(I198
I221
tp707
a(I279
I228
tp708
a(I267
I215
tp709
a(I265
I170
tp710
a(I228
I234
tp711
a(I145
I242
tp712
a(I131
I246
tp713
a(I306
I151
tp714
a(I84
I269
tp715
a(I79
I312
tp716
a(I213
I175
tp717
a(I250
I88
tp718
a(I259
I162
tp719
a(I77
I321
tp720
a(I261
I94
tp721
a(I279
I190
tp722
a(I288
I161
tp723
a(I32
I278
tp724
a(I346
I34
tp725
a(I142
I267
tp726
a(I245
I206
tp727
a(I208
I209
tp728
a(I130
I115
tp729
a(I246
I180
tp730
a(I323
I88
tp731
a(I276
I154
tp732
a(I115
I240
tp733
a(I237
I246
tp734
a(I297
I141
tp735
a(I310
I116
tp736
a(I321
I226
tp737
a(I252
I165
tp738
a(I266
I127
tp739
a(I235
I176
tp740
a(I255
I188
tp741
a(I258
I167
tp742
a(I262
I211
tp743
a(I281
I189
tp744
a(I253
I200
tp745
a(I263
I187
tp746
a(I250
I239
tp747
a(I109
I246
tp748
a(I51
I274
tp749
a(I249
I232
tp750
a(I280
I73
tp751
a(I133
I246
tp752
a(I222
I196
tp753
a(I18
I269
tp754
a(I260
I225
tp755
a(I257
I226
tp756
a(I140
I251
tp757
a(I187
I26
tp758
a(I284
I63
tp759
a(I119
I260
tp760
a(I286
I172
tp761
a(I212
I227
tp762
a(I268
I226
tp763
a(I269
I172
tp764
a(I307
I105
tp765
a(I239
I237
tp766
a(I247
I211
tp767
a(I318
I90
tp768
a(I259
I130
tp769
a(I142
I106
tp770
a(I260
I157
tp771
a(I327
I67
tp772
a(I24
I254
tp773
a(I288
I129
tp774
a(I249
I216
tp775
a(I270
I179
tp776
a(I329
I8
tp777
a(I269
I225
tp778
a(I269
I140
tp779
a(I254
I224
tp780
a(I280
I190
tp781
a(I314
I56
tp782
a(I332
I27
tp783
a(I284
I178
tp784
a(I183
I261
tp785
a(I265
I141
tp786
a(I254
I225
tp787
a(I241
I240
tp788
a(I182
I259
tp789
a(I310
I81
tp790
a(I257
I184
tp791
a(I204
I249
tp792
a(I273
I210
tp793
a(I349
I38
tp794
a(I154
I271
tp795
a(I269
I214
tp796
a(I44
I293
tp797
a(I266
I197
tp798
a(I267
I132
tp799
a(I284
I133
tp800
a(I261
I213
tp801
a(I250
I213
tp802
a(I142
I243
tp803
a(I249
I208
tp804
a(I318
I85
tp805
a(I217
I202
tp806
a(I294
I61
tp807
a(I284
I69
tp808
a(I275
I136
tp809
a(I226
I167
tp810
a(I278
I107
tp811
a(I67
I322
tp812
a(I391
I46
tp813
a(I287
I60
tp814
a(I294
I134
tp815
a(I272
I203
tp816
a(I345
I45
tp817
a(I235
I228
tp818
a(I277
I145
tp819
a(I51
I294
tp820
a(I95
I139
tp821
a(I75
I321
tp822
a(I74
I264
tp823
a(I279
I180
tp824
a(I281
I157
tp825
a(I143
I248
tp826
a(I40
I278
tp827
a(I261
I174
tp828
a(I260
I172
tp829
a(I266
I167
tp830
a(I264
I166
tp831
a(I162
I255
tp832
a(I261
I222
tp833
a(I265
I165
tp834
a(I285
I148
tp835
a(I261
I221
tp836
a(I261
I220
tp837
a(I268
I212
tp838
a(I261
I219
tp839
a.